; ModuleID = '5/584.c'
source_filename = "5/584.c"
target datalayout = "e-m:e-p270:32:32-p271:32:32-p272:64:64-i64:64-f80:128-n8:16:32:64-S128"
target triple = "x86_64-pc-linux-gnu"

@.str = private unnamed_addr constant [4 x i8] c"%lf\00", align 1
@.str.1 = private unnamed_addr constant [6 x i8] c"%s %s\00", align 1
@.str.2 = private unnamed_addr constant [6 x i8] c"error\00", align 1
@.str.3 = private unnamed_addr constant [4 x i8] c"yes\00", align 1
@.str.4 = private unnamed_addr constant [3 x i8] c"no\00", align 1

; Function Attrs: noinline nounwind uwtable
define dso_local i32 @main() #0 {
  %1 = alloca i32, align 4
  %2 = alloca i32, align 4
  %3 = alloca i32, align 4
  %4 = alloca i32, align 4
  %5 = alloca i32, align 4
  %6 = alloca i32, align 4
  %7 = alloca double, align 8
  %8 = alloca [500 x i8], align 16
  %9 = alloca [500 x i8], align 16
  store i32 0, i32* %1, align 4
  store i32 0, i32* %6, align 4
  %10 = call i32 (i8*, ...) @__isoc99_scanf(i8* getelementptr inbounds ([4 x i8], [4 x i8]* @.str, i64 0, i64 0), double* %7)
  %11 = getelementptr inbounds [500 x i8], [500 x i8]* %8, i64 0, i64 0
  %12 = getelementptr inbounds [500 x i8], [500 x i8]* %9, i64 0, i64 0
  %13 = call i32 (i8*, ...) @__isoc99_scanf(i8* getelementptr inbounds ([6 x i8], [6 x i8]* @.str.1, i64 0, i64 0), i8* %11, i8* %12)
  %14 = getelementptr inbounds [500 x i8], [500 x i8]* %8, i64 0, i64 0
  %15 = call i64 @strlen(i8* %14) #3
  %16 = trunc i64 %15 to i32
  store i32 %16, i32* %4, align 4
  %17 = getelementptr inbounds [500 x i8], [500 x i8]* %9, i64 0, i64 0
  %18 = call i64 @strlen(i8* %17) #3
  %19 = trunc i64 %18 to i32
  store i32 %19, i32* %5, align 4
  %20 = load i32, i32* %4, align 4
  %21 = load i32, i32* %5, align 4
  %22 = icmp ne i32 %20, %21
  br i1 %22, label %23, label %25

23:                                               ; preds = %0
  %24 = call i32 (i8*, ...) @printf(i8* getelementptr inbounds ([6 x i8], [6 x i8]* @.str.2, i64 0, i64 0))
  store i32 0, i32* %1, align 4
  br label %123

25:                                               ; preds = %0
  store i32 0, i32* %3, align 4
  br label %26

26:                                               ; preds = %106, %25
  %27 = load i32, i32* %3, align 4
  %28 = load i32, i32* %4, align 4
  %29 = icmp slt i32 %27, %28
  br i1 %29, label %30, label %109

30:                                               ; preds = %26
  %31 = load i32, i32* %3, align 4
  %32 = sext i32 %31 to i64
  %33 = getelementptr inbounds [500 x i8], [500 x i8]* %8, i64 0, i64 %32
  %34 = load i8, i8* %33, align 1
  %35 = sext i8 %34 to i32
  %36 = load i32, i32* %3, align 4
  %37 = sext i32 %36 to i64
  %38 = getelementptr inbounds [500 x i8], [500 x i8]* %9, i64 0, i64 %37
  %39 = load i8, i8* %38, align 1
  %40 = sext i8 %39 to i32
  %41 = icmp eq i32 %35, %40
  br i1 %41, label %42, label %45

42:                                               ; preds = %30
  %43 = load i32, i32* %6, align 4
  %44 = add nsw i32 %43, 1
  store i32 %44, i32* %6, align 4
  br label %45

45:                                               ; preds = %42, %30
  %46 = load i32, i32* %3, align 4
  %47 = sext i32 %46 to i64
  %48 = getelementptr inbounds [500 x i8], [500 x i8]* %8, i64 0, i64 %47
  %49 = load i8, i8* %48, align 1
  %50 = sext i8 %49 to i32
  %51 = icmp ne i32 %50, 65
  br i1 %51, label %52, label %75

52:                                               ; preds = %45
  %53 = load i32, i32* %3, align 4
  %54 = sext i32 %53 to i64
  %55 = getelementptr inbounds [500 x i8], [500 x i8]* %8, i64 0, i64 %54
  %56 = load i8, i8* %55, align 1
  %57 = sext i8 %56 to i32
  %58 = icmp ne i32 %57, 71
  br i1 %58, label %59, label %75

59:                                               ; preds = %52
  %60 = load i32, i32* %3, align 4
  %61 = sext i32 %60 to i64
  %62 = getelementptr inbounds [500 x i8], [500 x i8]* %8, i64 0, i64 %61
  %63 = load i8, i8* %62, align 1
  %64 = sext i8 %63 to i32
  %65 = icmp ne i32 %64, 67
  br i1 %65, label %66, label %75

66:                                               ; preds = %59
  %67 = load i32, i32* %3, align 4
  %68 = sext i32 %67 to i64
  %69 = getelementptr inbounds [500 x i8], [500 x i8]* %8, i64 0, i64 %68
  %70 = load i8, i8* %69, align 1
  %71 = sext i8 %70 to i32
  %72 = icmp ne i32 %71, 84
  br i1 %72, label %73, label %75

73:                                               ; preds = %66
  %74 = call i32 (i8*, ...) @printf(i8* getelementptr inbounds ([6 x i8], [6 x i8]* @.str.2, i64 0, i64 0))
  store i32 0, i32* %1, align 4
  br label %123

75:                                               ; preds = %66, %59, %52, %45
  %76 = load i32, i32* %3, align 4
  %77 = sext i32 %76 to i64
  %78 = getelementptr inbounds [500 x i8], [500 x i8]* %9, i64 0, i64 %77
  %79 = load i8, i8* %78, align 1
  %80 = sext i8 %79 to i32
  %81 = icmp ne i32 %80, 65
  br i1 %81, label %82, label %105

82:                                               ; preds = %75
  %83 = load i32, i32* %3, align 4
  %84 = sext i32 %83 to i64
  %85 = getelementptr inbounds [500 x i8], [500 x i8]* %9, i64 0, i64 %84
  %86 = load i8, i8* %85, align 1
  %87 = sext i8 %86 to i32
  %88 = icmp ne i32 %87, 71
  br i1 %88, label %89, label %105

89:                                               ; preds = %82
  %90 = load i32, i32* %3, align 4
  %91 = sext i32 %90 to i64
  %92 = getelementptr inbounds [500 x i8], [500 x i8]* %9, i64 0, i64 %91
  %93 = load i8, i8* %92, align 1
  %94 = sext i8 %93 to i32
  %95 = icmp ne i32 %94, 67
  br i1 %95, label %96, label %105

96:                                               ; preds = %89
  %97 = load i32, i32* %3, align 4
  %98 = sext i32 %97 to i64
  %99 = getelementptr inbounds [500 x i8], [500 x i8]* %9, i64 0, i64 %98
  %100 = load i8, i8* %99, align 1
  %101 = sext i8 %100 to i32
  %102 = icmp ne i32 %101, 84
  br i1 %102, label %103, label %105

103:                                              ; preds = %96
  %104 = call i32 (i8*, ...) @printf(i8* getelementptr inbounds ([6 x i8], [6 x i8]* @.str.2, i64 0, i64 0))
  store i32 0, i32* %1, align 4
  br label %123

105:                                              ; preds = %96, %89, %82, %75
  br label %106

106:                                              ; preds = %105
  %107 = load i32, i32* %3, align 4
  %108 = add nsw i32 %107, 1
  store i32 %108, i32* %3, align 4
  br label %26

109:                                              ; preds = %26
  %110 = load i32, i32* %6, align 4
  %111 = sitofp i32 %110 to double
  %112 = fmul double 1.000000e+00, %111
  %113 = load i32, i32* %4, align 4
  %114 = sitofp i32 %113 to double
  %115 = fdiv double %112, %114
  %116 = load double, double* %7, align 8
  %117 = fcmp oge double %115, %116
  br i1 %117, label %118, label %120

118:                                              ; preds = %109
  %119 = call i32 (i8*, ...) @printf(i8* getelementptr inbounds ([4 x i8], [4 x i8]* @.str.3, i64 0, i64 0))
  br label %122

120:                                              ; preds = %109
  %121 = call i32 (i8*, ...) @printf(i8* getelementptr inbounds ([3 x i8], [3 x i8]* @.str.4, i64 0, i64 0))
  br label %122

122:                                              ; preds = %120, %118
  store i32 0, i32* %1, align 4
  br label %123

123:                                              ; preds = %122, %103, %73, %23
  %124 = load i32, i32* %1, align 4
  ret i32 %124
}

declare dso_local i32 @__isoc99_scanf(i8*, ...) #1

; Function Attrs: nounwind readonly
declare dso_local i64 @strlen(i8*) #2

declare dso_local i32 @printf(i8*, ...) #1


!llvm.module.flags = !{!0}
!llvm.ident = !{!1}

!0 = !{i32 1, !"wchar_size", i32 4}
!1 = !{!"clang version 10.0.0-4ubuntu1 "}
